target datalayout = "e-m:e-p270:32:32-p271:32:32-p272:64:64-i64:64-i128:128-f80:128-n8:16:32:64-S128"
target triple = "x86_64-unknown-linux-gnu"

%struct.QTailQLink = type { ptr, ptr }
%struct.BlockDriverState = type { i32, i8, i8, i8, i8, i8, ptr, ptr, ptr, %struct.anon.0, i8, [4096 x i8], [4096 x i8], [4096 x i8], [16 x i8], ptr, [4096 x i8], %struct.BlockLimits, i32, i32, i32, i32, [32 x i8], %union.anon.1, %union.anon.2, %union.anon.3, i32, [16 x %struct.anon.4], ptr, %struct.anon.5, ptr, ptr, %struct.anon.6, ptr, ptr, i32, ptr, i64, i64, %struct.QemuMutex, %struct.anon.7, %struct.Stat64, i32, i32, i32, i32, i32, i32, %struct.QemuMutex, %struct.anon.8, %struct.CoQueue, i8, i32, i8, %struct.CoMutex, ptr, ptr }
%struct.anon.0 = type { ptr }
%struct.BlockLimits = type { i32, i64, i32, i64, i32, i32, i32, i64, i32, i64, i64, i32, i8, i32, i32, i32, i32, i32, i32, i32 }
%union.anon.1 = type { %struct.QTailQLink }
%union.anon.2 = type { %struct.QTailQLink }
%union.anon.3 = type { %struct.QTailQLink }
%struct.anon.4 = type { ptr }
%struct.anon.5 = type { ptr }
%struct.anon.6 = type { ptr }
%struct.anon.7 = type { ptr }
%struct.Stat64 = type { i64 }
%struct.QemuMutex = type { %union.pthread_mutex_t, i8 }
%union.pthread_mutex_t = type { %struct.__pthread_mutex_s }
%struct.__pthread_mutex_s = type { i32, i32, i32, i32, i32, i16, i16, %struct.__pthread_internal_list }
%struct.__pthread_internal_list = type { ptr, ptr }
%struct.anon.8 = type { ptr }
%struct.CoQueue = type { %struct.anon.9 }
%struct.anon.9 = type { ptr, ptr }
%struct.CoMutex = type { i32, ptr, %struct.anon.10, %struct.anon.10, i32, i32, ptr }
%struct.anon.10 = type { ptr }
%struct.BDRVVmdkState = type { %struct.CoMutex, i64, i8, i8, i32, i32, i32, ptr, ptr, ptr }
%struct.VmdkExtent = type { ptr, i8, i8, i8, i8, i8, i64, i64, i32, i32, i64, i64, i64, i64, i64, ptr, ptr, i32, i32, i32, ptr, [16 x i32], [16 x i32], i64, i64, ptr }

; Function Attrs: nounwind sspstrong uwtable
define internal void @vmdk_refresh_limits(ptr noundef %bs, ptr noundef %errp) #0 {
entry:
  %bs.addr = alloca ptr, align 8
  %errp.addr = alloca ptr, align 8
  %s = alloca ptr, align 8
  %i = alloca i32, align 4
  %_a9 = alloca i64, align 8
  %_b10 = alloca i64, align 8
  %tmp = alloca i64, align 8
  store ptr %bs, ptr %bs.addr, align 8
  store ptr %errp, ptr %errp.addr, align 8
  %0 = load ptr, ptr %bs.addr, align 8
  %opaque = getelementptr inbounds %struct.BlockDriverState, ptr %0, i32 0, i32 7
  %1 = load ptr, ptr %opaque, align 8
  store ptr %1, ptr %s, align 8
  store i32 0, ptr %i, align 4
  br label %for.cond

for.cond:                                         ; preds = %for.inc, %entry
  %2 = load i32, ptr %i, align 4
  %3 = load ptr, ptr %s, align 8
  %num_extents = getelementptr inbounds %struct.BDRVVmdkState, ptr %3, i32 0, i32 6
  %4 = load i32, ptr %num_extents, align 4
  %cmp = icmp slt i32 %2, %4
  br i1 %cmp, label %for.body, label %for.end

for.body:                                         ; preds = %for.cond
  %5 = load ptr, ptr %s, align 8
  %extents = getelementptr inbounds %struct.BDRVVmdkState, ptr %5, i32 0, i32 7
  %6 = load ptr, ptr %extents, align 8
  %7 = load i32, ptr %i, align 4
  %idxprom = sext i32 %7 to i64
  %arrayidx = getelementptr %struct.VmdkExtent, ptr %6, i64 %idxprom
  %flat = getelementptr inbounds %struct.VmdkExtent, ptr %arrayidx, i32 0, i32 1
  %8 = load i8, ptr %flat, align 8
  %tobool = trunc i8 %8 to i1
  br i1 %tobool, label %if.end, label %if.then

if.then:                                          ; preds = %for.body
  %9 = load ptr, ptr %bs.addr, align 8
  %bl = getelementptr inbounds %struct.BlockDriverState, ptr %9, i32 0, i32 17
  %pwrite_zeroes_alignment = getelementptr inbounds %struct.BlockLimits, ptr %bl, i32 0, i32 4
  %10 = load i32, ptr %pwrite_zeroes_alignment, align 8
  %conv = zext i32 %10 to i64
  store i64 %conv, ptr %_a9, align 8
  %11 = load ptr, ptr %s, align 8
  %extents1 = getelementptr inbounds %struct.BDRVVmdkState, ptr %11, i32 0, i32 7
  %12 = load ptr, ptr %extents1, align 8
  %13 = load i32, ptr %i, align 4
  %idxprom2 = sext i32 %13 to i64
  %arrayidx3 = getelementptr %struct.VmdkExtent, ptr %12, i64 %idxprom2
  %cluster_sectors = getelementptr inbounds %struct.VmdkExtent, ptr %arrayidx3, i32 0, i32 23
  %14 = load i64, ptr %cluster_sectors, align 8
  %shl = shl i64 %14, 9
  store i64 %shl, ptr %_b10, align 8
  %15 = load i64, ptr %_a9, align 8
  %16 = load i64, ptr %_b10, align 8
  %cmp4 = icmp sgt i64 %15, %16
  br i1 %cmp4, label %cond.true, label %cond.false

cond.true:                                        ; preds = %if.then
  %17 = load i64, ptr %_a9, align 8
  br label %cond.end

cond.false:                                       ; preds = %if.then
  %18 = load i64, ptr %_b10, align 8
  br label %cond.end

cond.end:                                         ; preds = %cond.false, %cond.true
  %cond = phi i64 [ %17, %cond.true ], [ %18, %cond.false ]
  store i64 %cond, ptr %tmp, align 8
  %19 = load i64, ptr %tmp, align 8
  %conv6 = trunc i64 %19 to i32
  %20 = load ptr, ptr %bs.addr, align 8
  %bl7 = getelementptr inbounds %struct.BlockDriverState, ptr %20, i32 0, i32 17
  %pwrite_zeroes_alignment8 = getelementptr inbounds %struct.BlockLimits, ptr %bl7, i32 0, i32 4
  store i32 %conv6, ptr %pwrite_zeroes_alignment8, align 8
  br label %if.end

if.end:                                           ; preds = %cond.end, %for.body
  br label %for.inc

for.inc:                                          ; preds = %if.end
  %21 = load i32, ptr %i, align 4
  %inc = add i32 %21, 1
  store i32 %inc, ptr %i, align 4
  br label %for.cond, !llvm.loop !8

for.end:                                          ; preds = %for.cond
  ret void
}