; Function Attrs: nofree norecurse nosync nounwind sspstrong memory(read, argmem: readwrite, inaccessiblemem: none) uwtable
define internal void @vmdk_refresh_limits(ptr noundef captures(none) %bs, ptr readnone captures(none) %errp) #2 {
entry:
  %opaque = getelementptr inbounds nuw i8, ptr %bs, i64 24
  %0 = load ptr, ptr %opaque, align 8
  %num_extents = getelementptr inbounds nuw i8, ptr %0, i64 68
  %1 = load i32, ptr %num_extents, align 4
  %cmp10 = icmp sgt i32 %1, 0
  br i1 %cmp10, label %for.body.lr.ph, label %for.end

for.body.lr.ph:                                   ; preds = %entry
  %extents = getelementptr inbounds nuw i8, ptr %0, i64 72
  %pwrite_zeroes_alignment = getelementptr inbounds nuw i8, ptr %bs, i64 16496
  br label %for.body

for.body:                                         ; preds = %for.body.lr.ph, %for.inc
  %2 = phi i32 [ %1, %for.body.lr.ph ], [ %7, %for.inc ]
  %indvars.iv = phi i64 [ 0, %for.body.lr.ph ], [ %indvars.iv.next, %for.inc ]
  %3 = load ptr, ptr %extents, align 8
  %arrayidx = getelementptr %struct.VmdkExtent, ptr %3, i64 %indvars.iv
  %flat = getelementptr inbounds nuw i8, ptr %arrayidx, i64 8
  %4 = load i8, ptr %flat, align 8
  %tobool = trunc i8 %4 to i1
  br i1 %tobool, label %for.inc, label %if.then

if.then:                                          ; preds = %for.body
  %5 = load i32, ptr %pwrite_zeroes_alignment, align 8
  %conv = zext i32 %5 to i64
  %cluster_sectors = getelementptr inbounds nuw i8, ptr %arrayidx, i64 248
  %6 = load i64, ptr %cluster_sectors, align 8
  %shl = shl i64 %6, 9
  %cond = tail call i64 @llvm.smax.i64(i64 %shl, i64 %conv)
  %conv6 = trunc i64 %cond to i32
  store i32 %conv6, ptr %pwrite_zeroes_alignment, align 8
  %.pre = load i32, ptr %num_extents, align 4
  br label %for.inc

for.inc:                                          ; preds = %for.body, %if.then
  %7 = phi i32 [ %2, %for.body ], [ %.pre, %if.then ]
  %indvars.iv.next = add nuw nsw i64 %indvars.iv, 1
  %8 = sext i32 %7 to i64
  %cmp = icmp slt i64 %indvars.iv.next, %8
  br i1 %cmp, label %for.body, label %for.end, !llvm.loop !8

for.end:                                          ; preds = %for.inc, %entry
  ret void
}